; Function Attrs: inlinehint mustprogress nounwind optsize uwtable
define internal noundef ptr @"_ZZN8nanobind6detail11func_createILb0ELb1EZL32nanobind_init_test_functions_extRNS_7module_EE4$_37xJxEJLm0EEJNS_5scopeENS_4nameEEEEP7_objectOT1_PFT2_DpT3_ESt16integer_sequenceImJXspT4_EEEDpRKT5_ENUlPvPS8_PhNS_9rv_policyEPNS0_12cleanup_listEE_8__invokeESM_SN_SO_SP_SR_"(ptr readnone captures(none) %0, ptr noundef readonly captures(none) %1, ptr noundef readonly captures(none) %2, i32 %3, ptr readnone captures(none) %4) #17 align 2 personality ptr @__gxx_personality_v0 {
  %6 = alloca %"struct.nanobind::detail::tuple.385", align 8
  call void @llvm.lifetime.start.p0(i64 8, ptr nonnull %6) #27
  %7 = load ptr, ptr %1, align 8, !tbaa !158
  %8 = load i8, ptr %2, align 1, !tbaa !41
  %9 = call noundef zeroext i1 @_ZN8nanobind6detail8load_i64EP7_objecthPl(ptr noundef %7, i8 noundef zeroext %8, ptr noundef nonnull align 8 dereferenceable(8) %6) #31
  br i1 %9, label %10, label %"_ZZN8nanobind6detail11func_createILb0ELb1EZL32nanobind_init_test_functions_extRNS_7module_EE4$_37xJxEJLm0EEJNS_5scopeENS_4nameEEEEP7_objectOT1_PFT2_DpT3_ESt16integer_sequenceImJXspT4_EEEDpRKT5_ENKUlPvPS8_PhNS_9rv_policyEPNS0_12cleanup_listEE_clESM_SN_SO_SP_SR_.exit"

10:                                               ; preds = %5
  %11 = load i64, ptr %6, align 8, !tbaa !277
  %12 = invoke ptr @PyLong_FromLong(i64 noundef %11) #28
          to label %"_ZZN8nanobind6detail11func_createILb0ELb1EZL32nanobind_init_test_functions_extRNS_7module_EE4$_37xJxEJLm0EEJNS_5scopeENS_4nameEEEEP7_objectOT1_PFT2_DpT3_ESt16integer_sequenceImJXspT4_EEEDpRKT5_ENKUlPvPS8_PhNS_9rv_policyEPNS0_12cleanup_listEE_clESM_SN_SO_SP_SR_.exit" unwind label %13

13:                                               ; preds = %10
  %14 = landingpad { ptr, i32 }
          catch ptr null
  %15 = extractvalue { ptr, i32 } %14, 0
  call void @__clang_call_terminate(ptr %15) #30
  unreachable

"_ZZN8nanobind6detail11func_createILb0ELb1EZL32nanobind_init_test_functions_extRNS_7module_EE4$_37xJxEJLm0EEJNS_5scopeENS_4nameEEEEP7_objectOT1_PFT2_DpT3_ESt16integer_sequenceImJXspT4_EEEDpRKT5_ENKUlPvPS8_PhNS_9rv_policyEPNS0_12cleanup_listEE_clESM_SN_SO_SP_SR_.exit": ; preds = %10, %5
  %.0.i = phi ptr [ inttoptr (i64 1 to ptr), %5 ], [ %12, %10 ]
  call void @llvm.lifetime.end.p0(i64 8, ptr nonnull %6) #27
  ret ptr %.0.i
}